; Function Attrs: mustprogress nounwind uwtable
define hidden noundef ptr @_Z17CompiledIC_beforeP7nmethodPh(ptr noundef %0, ptr noundef %1) local_unnamed_addr #0 {
  %3 = alloca %class.RelocIterator, align 8
  %4 = getelementptr inbounds i8, ptr %1, i64 -5
  call void @llvm.lifetime.start.p0(i64 152, ptr nonnull %3)
  %5 = getelementptr inbounds i8, ptr %1, i64 -4
  %6 = getelementptr inbounds i8, ptr %3, i64 112
  store ptr getelementptr inbounds inrange(-16, 72) (i8, ptr @_ZTV10Relocation, i64 16), ptr %6, align 8
  %7 = getelementptr inbounds i8, ptr %3, i64 120
  store ptr null, ptr %7, align 8
  %8 = getelementptr inbounds i8, ptr %3, i64 128
  store i32 0, ptr %8, align 8
  call void @_ZN13RelocIterator10initializeEP7nmethodPhS2_(ptr noundef nonnull align 8 dereferenceable(152) %3, ptr noundef %0, ptr noundef nonnull %4, ptr noundef nonnull %5) #14
  %9 = getelementptr inbounds i8, ptr %3, i64 8
  %10 = load ptr, ptr %9, align 8
  %11 = getelementptr inbounds i8, ptr %10, i64 2
  store ptr %11, ptr %9, align 8
  %12 = getelementptr inbounds i8, ptr %3, i64 16
  %13 = load ptr, ptr %12, align 8
  %14 = icmp eq ptr %11, %13
  %15 = getelementptr inbounds i8, ptr %3, i64 56
  br i1 %14, label %.sink.split.i.i, label %16

16:                                               ; preds = %2
  store i16 0, ptr %15, align 8
  %17 = load i16, ptr %11, align 2
  %.mask.i.i.i = and i16 %17, -2048
  %18 = icmp eq i16 %.mask.i.i.i, 30720
  br i1 %18, label %19, label %20

19:                                               ; preds = %16
  call void @_ZN13RelocIterator19advance_over_prefixEv(ptr noundef nonnull align 8 dereferenceable(152) %3) #14
  %.pre.i.i = load ptr, ptr %9, align 8
  %.pre4.i.i = load i16, ptr %.pre.i.i, align 2
  br label %20

20:                                               ; preds = %19, %16
  %21 = phi i16 [ %.pre4.i.i, %19 ], [ %17, %16 ]
  %22 = and i16 %21, 255
  %23 = getelementptr inbounds i8, ptr %3, i64 32
  %24 = load ptr, ptr %23, align 8
  %25 = zext nneg i16 %22 to i64
  %26 = getelementptr inbounds i8, ptr %24, i64 %25
  store ptr %26, ptr %23, align 8
  %27 = load ptr, ptr %3, align 8
  %.not.i.i = icmp eq ptr %27, null
  %.not3.i.i = icmp ult ptr %26, %27
  %or.cond.i.i = select i1 %.not.i.i, i1 true, i1 %.not3.i.i
  br i1 %or.cond.i.i, label %_Z13CompiledIC_atP7nmethodPh.exit, label %.sink.split.i.i

.sink.split.i.i:                                  ; preds = %20, %2
  store i16 -1, ptr %15, align 8
  br label %_Z13CompiledIC_atP7nmethodPh.exit

_Z13CompiledIC_atP7nmethodPh.exit:                ; preds = %20, %.sink.split.i.i
  %28 = call noundef ptr @_Z13CompiledIC_atP13RelocIterator(ptr noundef nonnull %3)
  call void @llvm.lifetime.end.p0(i64 152, ptr nonnull %3)
  ret ptr %28
}